target datalayout = "e-m:e-p270:32:32-p271:32:32-p272:64:64-i64:64-i128:128-f80:128-n8:16:32:64-S128"
target triple = "x86_64-unknown-linux-gnu"

; Function Attrs: nounwind uwtable
define internal void @BrotliEncodeMlen(i64 noundef %length, ptr noundef %bits, ptr noundef %numbits, ptr noundef %nibblesbits) #0 {
entry:
  %n.addr.i = alloca i64, align 8
  %length.addr = alloca i64, align 8
  %bits.addr = alloca ptr, align 8
  %numbits.addr = alloca ptr, align 8
  %nibblesbits.addr = alloca ptr, align 8
  %lg = alloca i64, align 8
  %mnibbles = alloca i64, align 8
  store i64 %length, ptr %length.addr, align 8
  store ptr %bits, ptr %bits.addr, align 8
  store ptr %numbits, ptr %numbits.addr, align 8
  store ptr %nibblesbits, ptr %nibblesbits.addr, align 8
  %0 = load i64, ptr %length.addr, align 8
  %cmp = icmp eq i64 %0, 1
  br i1 %cmp, label %cond.true, label %cond.false

cond.true:                                        ; preds = %entry
  br label %cond.end

cond.false:                                       ; preds = %entry
  %1 = load i64, ptr %length.addr, align 8
  %sub = sub i64 %1, 1
  %conv = trunc i64 %sub to i32
  %conv1 = zext i32 %conv to i64
  store i64 %conv1, ptr %n.addr.i, align 8
  %2 = load i64, ptr %n.addr.i, align 8
  %conv.i = trunc i64 %2 to i32
  %3 = call i32 @llvm.ctlz.i32(i32 %conv.i, i1 true)
  %xor.i = xor i32 31, %3
  %add = add i32 %xor.i, 1
  br label %cond.end

cond.end:                                         ; preds = %cond.false, %cond.true
  %cond = phi i32 [ 1, %cond.true ], [ %add, %cond.false ]
  %conv2 = zext i32 %cond to i64
  store i64 %conv2, ptr %lg, align 8
  %4 = load i64, ptr %lg, align 8
  %cmp3 = icmp ult i64 %4, 16
  br i1 %cmp3, label %cond.true5, label %cond.false6

cond.true5:                                       ; preds = %cond.end
  br label %cond.end8

cond.false6:                                      ; preds = %cond.end
  %5 = load i64, ptr %lg, align 8
  %add7 = add i64 %5, 3
  br label %cond.end8

cond.end8:                                        ; preds = %cond.false6, %cond.true5
  %cond9 = phi i64 [ 16, %cond.true5 ], [ %add7, %cond.false6 ]
  %div = udiv i64 %cond9, 4
  store i64 %div, ptr %mnibbles, align 8
  %6 = load i64, ptr %mnibbles, align 8
  %sub10 = sub i64 %6, 4
  %7 = load ptr, ptr %nibblesbits.addr, align 8
  store i64 %sub10, ptr %7, align 8
  %8 = load i64, ptr %mnibbles, align 8
  %mul = mul i64 %8, 4
  %9 = load ptr, ptr %numbits.addr, align 8
  store i64 %mul, ptr %9, align 8
  %10 = load i64, ptr %length.addr, align 8
  %sub11 = sub i64 %10, 1
  %11 = load ptr, ptr %bits.addr, align 8
  store i64 %sub11, ptr %11, align 8
  ret void
}

; Function Attrs: nounwind uwtable
define internal void @JumpToByteBoundary(ptr noundef %storage_ix, ptr noundef %storage) #0 {
entry:
  %storage_ix.addr = alloca ptr, align 8
  %storage.addr = alloca ptr, align 8
  store ptr %storage_ix, ptr %storage_ix.addr, align 8
  store ptr %storage, ptr %storage.addr, align 8
  %0 = load ptr, ptr %storage_ix.addr, align 8
  %1 = load i64, ptr %0, align 8
  %add = add i64 %1, 7
  %and = and i64 %add, 4294967288
  %2 = load ptr, ptr %storage_ix.addr, align 8
  store i64 %and, ptr %2, align 8
  %3 = load ptr, ptr %storage.addr, align 8
  %4 = load ptr, ptr %storage_ix.addr, align 8
  %5 = load i64, ptr %4, align 8
  %shr = lshr i64 %5, 3
  %arrayidx = getelementptr inbounds i8, ptr %3, i64 %shr
  store i8 0, ptr %arrayidx, align 1
  ret void
}

; Function Attrs: nounwind uwtable
define internal void @BrotliStoreUncompressedMetaBlockHeader(i64 noundef %length, ptr noundef %storage_ix, ptr noundef %storage) #0 {
entry:
  %p.addr.i44 = alloca ptr, align 8
  %v.addr.i45 = alloca i64, align 8
  %p.addr.i42 = alloca ptr, align 8
  %v.addr.i43 = alloca i64, align 8
  %p.addr.i40 = alloca ptr, align 8
  %v.addr.i41 = alloca i64, align 8
  %p.addr.i = alloca ptr, align 8
  %v.addr.i = alloca i64, align 8
  %n_bits.addr.i27 = alloca i64, align 8
  %bits.addr.i28 = alloca i64, align 8
  %pos.addr.i29 = alloca ptr, align 8
  %array.addr.i30 = alloca ptr, align 8
  %p.i31 = alloca ptr, align 8
  %v.i32 = alloca i64, align 8
  %n_bits.addr.i14 = alloca i64, align 8
  %bits.addr.i15 = alloca i64, align 8
  %pos.addr.i16 = alloca ptr, align 8
  %array.addr.i17 = alloca ptr, align 8
  %p.i18 = alloca ptr, align 8
  %v.i19 = alloca i64, align 8
  %n_bits.addr.i1 = alloca i64, align 8
  %bits.addr.i2 = alloca i64, align 8
  %pos.addr.i3 = alloca ptr, align 8
  %array.addr.i4 = alloca ptr, align 8
  %p.i5 = alloca ptr, align 8
  %v.i6 = alloca i64, align 8
  %n_bits.addr.i = alloca i64, align 8
  %bits.addr.i = alloca i64, align 8
  %pos.addr.i = alloca ptr, align 8
  %array.addr.i = alloca ptr, align 8
  %p.i = alloca ptr, align 8
  %v.i = alloca i64, align 8
  %length.addr = alloca i64, align 8
  %storage_ix.addr = alloca ptr, align 8
  %storage.addr = alloca ptr, align 8
  %lenbits = alloca i64, align 8
  %nlenbits = alloca i64, align 8
  %nibblesbits = alloca i64, align 8
  store i64 %length, ptr %length.addr, align 8
  store ptr %storage_ix, ptr %storage_ix.addr, align 8
  store ptr %storage, ptr %storage.addr, align 8
  %0 = load ptr, ptr %storage_ix.addr, align 8
  %1 = load ptr, ptr %storage.addr, align 8
  call void @llvm.experimental.noalias.scope.decl(metadata !445)
  call void @llvm.experimental.noalias.scope.decl(metadata !448)
  store i64 1, ptr %n_bits.addr.i27, align 8, !noalias !450
  store i64 0, ptr %bits.addr.i28, align 8, !noalias !450
  store ptr %0, ptr %pos.addr.i29, align 8, !noalias !450
  store ptr %1, ptr %array.addr.i30, align 8, !noalias !450
  %2 = load ptr, ptr %array.addr.i30, align 8, !noalias !450
  %3 = load ptr, ptr %pos.addr.i29, align 8, !noalias !450
  %4 = load i64, ptr %3, align 8
  %shr.i33 = lshr i64 %4, 3
  %arrayidx.i34 = getelementptr inbounds i8, ptr %2, i64 %shr.i33
  store ptr %arrayidx.i34, ptr %p.i31, align 8, !noalias !450
  %5 = load ptr, ptr %p.i31, align 8, !noalias !450
  %6 = load i8, ptr %5, align 1
  %conv.i35 = zext i8 %6 to i64
  store i64 %conv.i35, ptr %v.i32, align 8, !noalias !450
  %7 = load i64, ptr %bits.addr.i28, align 8, !noalias !450
  %8 = load ptr, ptr %pos.addr.i29, align 8, !noalias !450
  %9 = load i64, ptr %8, align 8
  %and.i36 = and i64 %9, 7
  %shl.i37 = shl i64 %7, %and.i36
  %10 = load i64, ptr %v.i32, align 8, !noalias !450
  %or.i38 = or i64 %10, %shl.i37
  store i64 %or.i38, ptr %v.i32, align 8, !noalias !450
  %11 = load ptr, ptr %p.i31, align 8, !noalias !450
  %12 = load i64, ptr %v.i32, align 8, !noalias !450
  store ptr %11, ptr %p.addr.i, align 8
  store i64 %12, ptr %v.addr.i, align 8
  %13 = load ptr, ptr %p.addr.i, align 8
  call void @llvm.memcpy.p0.p0.i64(ptr align 1 %13, ptr align 8 %v.addr.i, i64 8, i1 false)
  %14 = load i64, ptr %n_bits.addr.i27, align 8, !noalias !450
  %15 = load ptr, ptr %pos.addr.i29, align 8, !noalias !450
  %16 = load i64, ptr %15, align 8
  %add.i39 = add i64 %16, %14
  store i64 %add.i39, ptr %15, align 8
  %17 = load i64, ptr %length.addr, align 8
  call void @BrotliEncodeMlen(i64 noundef %17, ptr noundef %lenbits, ptr noundef %nlenbits, ptr noundef %nibblesbits)
  %18 = load i64, ptr %nibblesbits, align 8
  %19 = load ptr, ptr %storage_ix.addr, align 8
  %20 = load ptr, ptr %storage.addr, align 8
  call void @llvm.experimental.noalias.scope.decl(metadata !451)
  call void @llvm.experimental.noalias.scope.decl(metadata !454)
  store i64 2, ptr %n_bits.addr.i14, align 8, !noalias !456
  store i64 %18, ptr %bits.addr.i15, align 8, !noalias !456
  store ptr %19, ptr %pos.addr.i16, align 8, !noalias !456
  store ptr %20, ptr %array.addr.i17, align 8, !noalias !456
  %21 = load ptr, ptr %array.addr.i17, align 8, !noalias !456
  %22 = load ptr, ptr %pos.addr.i16, align 8, !noalias !456
  %23 = load i64, ptr %22, align 8
  %shr.i20 = lshr i64 %23, 3
  %arrayidx.i21 = getelementptr inbounds i8, ptr %21, i64 %shr.i20
  store ptr %arrayidx.i21, ptr %p.i18, align 8, !noalias !456
  %24 = load ptr, ptr %p.i18, align 8, !noalias !456
  %25 = load i8, ptr %24, align 1
  %conv.i22 = zext i8 %25 to i64
  store i64 %conv.i22, ptr %v.i19, align 8, !noalias !456
  %26 = load i64, ptr %bits.addr.i15, align 8, !noalias !456
  %27 = load ptr, ptr %pos.addr.i16, align 8, !noalias !456
  %28 = load i64, ptr %27, align 8
  %and.i23 = and i64 %28, 7
  %shl.i24 = shl i64 %26, %and.i23
  %29 = load i64, ptr %v.i19, align 8, !noalias !456
  %or.i25 = or i64 %29, %shl.i24
  store i64 %or.i25, ptr %v.i19, align 8, !noalias !456
  %30 = load ptr, ptr %p.i18, align 8, !noalias !456
  %31 = load i64, ptr %v.i19, align 8, !noalias !456
  store ptr %30, ptr %p.addr.i40, align 8
  store i64 %31, ptr %v.addr.i41, align 8
  %32 = load ptr, ptr %p.addr.i40, align 8
  call void @llvm.memcpy.p0.p0.i64(ptr align 1 %32, ptr align 8 %v.addr.i41, i64 8, i1 false)
  %33 = load i64, ptr %n_bits.addr.i14, align 8, !noalias !456
  %34 = load ptr, ptr %pos.addr.i16, align 8, !noalias !456
  %35 = load i64, ptr %34, align 8
  %add.i26 = add i64 %35, %33
  store i64 %add.i26, ptr %34, align 8
  %36 = load i64, ptr %nlenbits, align 8
  %37 = load i64, ptr %lenbits, align 8
  %38 = load ptr, ptr %storage_ix.addr, align 8
  %39 = load ptr, ptr %storage.addr, align 8
  call void @llvm.experimental.noalias.scope.decl(metadata !457)
  call void @llvm.experimental.noalias.scope.decl(metadata !460)
  store i64 %36, ptr %n_bits.addr.i1, align 8, !noalias !462
  store i64 %37, ptr %bits.addr.i2, align 8, !noalias !462
  store ptr %38, ptr %pos.addr.i3, align 8, !noalias !462
  store ptr %39, ptr %array.addr.i4, align 8, !noalias !462
  %40 = load ptr, ptr %array.addr.i4, align 8, !noalias !462
  %41 = load ptr, ptr %pos.addr.i3, align 8, !noalias !462
  %42 = load i64, ptr %41, align 8
  %shr.i7 = lshr i64 %42, 3
  %arrayidx.i8 = getelementptr inbounds i8, ptr %40, i64 %shr.i7
  store ptr %arrayidx.i8, ptr %p.i5, align 8, !noalias !462
  %43 = load ptr, ptr %p.i5, align 8, !noalias !462
  %44 = load i8, ptr %43, align 1
  %conv.i9 = zext i8 %44 to i64
  store i64 %conv.i9, ptr %v.i6, align 8, !noalias !462
  %45 = load i64, ptr %bits.addr.i2, align 8, !noalias !462
  %46 = load ptr, ptr %pos.addr.i3, align 8, !noalias !462
  %47 = load i64, ptr %46, align 8
  %and.i10 = and i64 %47, 7
  %shl.i11 = shl i64 %45, %and.i10
  %48 = load i64, ptr %v.i6, align 8, !noalias !462
  %or.i12 = or i64 %48, %shl.i11
  store i64 %or.i12, ptr %v.i6, align 8, !noalias !462
  %49 = load ptr, ptr %p.i5, align 8, !noalias !462
  %50 = load i64, ptr %v.i6, align 8, !noalias !462
  store ptr %49, ptr %p.addr.i42, align 8
  store i64 %50, ptr %v.addr.i43, align 8
  %51 = load ptr, ptr %p.addr.i42, align 8
  call void @llvm.memcpy.p0.p0.i64(ptr align 1 %51, ptr align 8 %v.addr.i43, i64 8, i1 false)
  %52 = load i64, ptr %n_bits.addr.i1, align 8, !noalias !462
  %53 = load ptr, ptr %pos.addr.i3, align 8, !noalias !462
  %54 = load i64, ptr %53, align 8
  %add.i13 = add i64 %54, %52
  store i64 %add.i13, ptr %53, align 8
  %55 = load ptr, ptr %storage_ix.addr, align 8
  %56 = load ptr, ptr %storage.addr, align 8
  call void @llvm.experimental.noalias.scope.decl(metadata !463)
  call void @llvm.experimental.noalias.scope.decl(metadata !466)
  store i64 1, ptr %n_bits.addr.i, align 8, !noalias !468
  store i64 1, ptr %bits.addr.i, align 8, !noalias !468
  store ptr %55, ptr %pos.addr.i, align 8, !noalias !468
  store ptr %56, ptr %array.addr.i, align 8, !noalias !468
  %57 = load ptr, ptr %array.addr.i, align 8, !noalias !468
  %58 = load ptr, ptr %pos.addr.i, align 8, !noalias !468
  %59 = load i64, ptr %58, align 8
  %shr.i = lshr i64 %59, 3
  %arrayidx.i = getelementptr inbounds i8, ptr %57, i64 %shr.i
  store ptr %arrayidx.i, ptr %p.i, align 8, !noalias !468
  %60 = load ptr, ptr %p.i, align 8, !noalias !468
  %61 = load i8, ptr %60, align 1
  %conv.i = zext i8 %61 to i64
  store i64 %conv.i, ptr %v.i, align 8, !noalias !468
  %62 = load i64, ptr %bits.addr.i, align 8, !noalias !468
  %63 = load ptr, ptr %pos.addr.i, align 8, !noalias !468
  %64 = load i64, ptr %63, align 8
  %and.i = and i64 %64, 7
  %shl.i = shl i64 %62, %and.i
  %65 = load i64, ptr %v.i, align 8, !noalias !468
  %or.i = or i64 %65, %shl.i
  store i64 %or.i, ptr %v.i, align 8, !noalias !468
  %66 = load ptr, ptr %p.i, align 8, !noalias !468
  %67 = load i64, ptr %v.i, align 8, !noalias !468
  store ptr %66, ptr %p.addr.i44, align 8
  store i64 %67, ptr %v.addr.i45, align 8
  %68 = load ptr, ptr %p.addr.i44, align 8
  call void @llvm.memcpy.p0.p0.i64(ptr align 1 %68, ptr align 8 %v.addr.i45, i64 8, i1 false)
  %69 = load i64, ptr %n_bits.addr.i, align 8, !noalias !468
  %70 = load ptr, ptr %pos.addr.i, align 8, !noalias !468
  %71 = load i64, ptr %70, align 8
  %add.i = add i64 %71, %69
  store i64 %add.i, ptr %70, align 8
  ret void
}

; Function Attrs: nounwind uwtable
define hidden void @BrotliStoreUncompressedMetaBlock(i32 noundef %is_final_block, ptr noalias noundef %input, i64 noundef %position, i64 noundef %mask, i64 noundef %len, ptr noalias noundef %storage_ix, ptr noalias noundef %storage) #0 {
entry:
  %p.addr.i30 = alloca ptr, align 8
  %v.addr.i31 = alloca i64, align 8
  %p.addr.i = alloca ptr, align 8
  %v.addr.i = alloca i64, align 8
  %pos.addr.i26 = alloca i64, align 8
  %array.addr.i27 = alloca ptr, align 8
  %n_bits.addr.i13 = alloca i64, align 8
  %bits.addr.i14 = alloca i64, align 8
  %pos.addr.i15 = alloca ptr, align 8
  %array.addr.i16 = alloca ptr, align 8
  %p.i17 = alloca ptr, align 8
  %v.i18 = alloca i64, align 8
  %n_bits.addr.i = alloca i64, align 8
  %bits.addr.i = alloca i64, align 8
  %pos.addr.i = alloca ptr, align 8
  %array.addr.i = alloca ptr, align 8
  %p.i = alloca ptr, align 8
  %v.i = alloca i64, align 8
  %is_final_block.addr = alloca i32, align 4
  %input.addr = alloca ptr, align 8
  %position.addr = alloca i64, align 8
  %mask.addr = alloca i64, align 8
  %len.addr = alloca i64, align 8
  %storage_ix.addr = alloca ptr, align 8
  %storage.addr = alloca ptr, align 8
  %masked_pos = alloca i64, align 8
  %len1 = alloca i64, align 8
  store i32 %is_final_block, ptr %is_final_block.addr, align 4
  store ptr %input, ptr %input.addr, align 8
  store i64 %position, ptr %position.addr, align 8
  store i64 %mask, ptr %mask.addr, align 8
  store i64 %len, ptr %len.addr, align 8
  store ptr %storage_ix, ptr %storage_ix.addr, align 8
  store ptr %storage, ptr %storage.addr, align 8
  %0 = load i64, ptr %position.addr, align 8
  %1 = load i64, ptr %mask.addr, align 8
  %and = and i64 %0, %1
  store i64 %and, ptr %masked_pos, align 8
  %2 = load i64, ptr %len.addr, align 8
  %3 = load ptr, ptr %storage_ix.addr, align 8
  %4 = load ptr, ptr %storage.addr, align 8
  call void @BrotliStoreUncompressedMetaBlockHeader(i64 noundef %2, ptr noundef %3, ptr noundef %4)
  %5 = load ptr, ptr %storage_ix.addr, align 8
  %6 = load ptr, ptr %storage.addr, align 8
  call void @JumpToByteBoundary(ptr noundef %5, ptr noundef %6)
  %7 = load i64, ptr %masked_pos, align 8
  %8 = load i64, ptr %len.addr, align 8
  %add = add i64 %7, %8
  %9 = load i64, ptr %mask.addr, align 8
  %add1 = add i64 %9, 1
  %cmp = icmp ugt i64 %add, %add1
  br i1 %cmp, label %if.then, label %if.end

if.then:                                          ; preds = %entry
  %10 = load i64, ptr %mask.addr, align 8
  %add2 = add i64 %10, 1
  %11 = load i64, ptr %masked_pos, align 8
  %sub = sub i64 %add2, %11
  store i64 %sub, ptr %len1, align 8
  %12 = load ptr, ptr %storage.addr, align 8
  %13 = load ptr, ptr %storage_ix.addr, align 8
  %14 = load i64, ptr %13, align 8
  %shr = lshr i64 %14, 3
  %arrayidx = getelementptr inbounds i8, ptr %12, i64 %shr
  %15 = load ptr, ptr %input.addr, align 8
  %16 = load i64, ptr %masked_pos, align 8
  %arrayidx3 = getelementptr inbounds i8, ptr %15, i64 %16
  %17 = load i64, ptr %len1, align 8
  call void @llvm.memcpy.p0.p0.i64(ptr align 1 %arrayidx, ptr align 1 %arrayidx3, i64 %17, i1 false)
  %18 = load i64, ptr %len1, align 8
  %shl = shl i64 %18, 3
  %19 = load ptr, ptr %storage_ix.addr, align 8
  %20 = load i64, ptr %19, align 8
  %add4 = add i64 %20, %shl
  store i64 %add4, ptr %19, align 8
  %21 = load i64, ptr %len1, align 8
  %22 = load i64, ptr %len.addr, align 8
  %sub5 = sub i64 %22, %21
  store i64 %sub5, ptr %len.addr, align 8
  store i64 0, ptr %masked_pos, align 8
  br label %if.end

if.end:                                           ; preds = %if.then, %entry
  %23 = load ptr, ptr %storage.addr, align 8
  %24 = load ptr, ptr %storage_ix.addr, align 8
  %25 = load i64, ptr %24, align 8
  %shr6 = lshr i64 %25, 3
  %arrayidx7 = getelementptr inbounds i8, ptr %23, i64 %shr6
  %26 = load ptr, ptr %input.addr, align 8
  %27 = load i64, ptr %masked_pos, align 8
  %arrayidx8 = getelementptr inbounds i8, ptr %26, i64 %27
  %28 = load i64, ptr %len.addr, align 8
  call void @llvm.memcpy.p0.p0.i64(ptr align 1 %arrayidx7, ptr align 1 %arrayidx8, i64 %28, i1 false)
  %29 = load i64, ptr %len.addr, align 8
  %shl9 = shl i64 %29, 3
  %30 = load ptr, ptr %storage_ix.addr, align 8
  %31 = load i64, ptr %30, align 8
  %add10 = add i64 %31, %shl9
  store i64 %add10, ptr %30, align 8
  %32 = load ptr, ptr %storage_ix.addr, align 8
  %33 = load i64, ptr %32, align 8
  %34 = load ptr, ptr %storage.addr, align 8
  store i64 %33, ptr %pos.addr.i26, align 8
  store ptr %34, ptr %array.addr.i27, align 8
  %35 = load ptr, ptr %array.addr.i27, align 8
  %36 = load i64, ptr %pos.addr.i26, align 8
  %shr.i28 = lshr i64 %36, 3
  %arrayidx.i29 = getelementptr inbounds i8, ptr %35, i64 %shr.i28
  store i8 0, ptr %arrayidx.i29, align 1
  %37 = load i32, ptr %is_final_block.addr, align 4
  %tobool = icmp ne i32 %37, 0
  br i1 %tobool, label %if.then11, label %if.end12

if.then11:                                        ; preds = %if.end
  %38 = load ptr, ptr %storage_ix.addr, align 8
  %39 = load ptr, ptr %storage.addr, align 8
  call void @llvm.experimental.noalias.scope.decl(metadata !433)
  call void @llvm.experimental.noalias.scope.decl(metadata !436)
  store i64 1, ptr %n_bits.addr.i13, align 8, !noalias !438
  store i64 1, ptr %bits.addr.i14, align 8, !noalias !438
  store ptr %38, ptr %pos.addr.i15, align 8, !noalias !438
  store ptr %39, ptr %array.addr.i16, align 8, !noalias !438
  %40 = load ptr, ptr %array.addr.i16, align 8, !noalias !438
  %41 = load ptr, ptr %pos.addr.i15, align 8, !noalias !438
  %42 = load i64, ptr %41, align 8
  %shr.i19 = lshr i64 %42, 3
  %arrayidx.i20 = getelementptr inbounds i8, ptr %40, i64 %shr.i19
  store ptr %arrayidx.i20, ptr %p.i17, align 8, !noalias !438
  %43 = load ptr, ptr %p.i17, align 8, !noalias !438
  %44 = load i8, ptr %43, align 1
  %conv.i21 = zext i8 %44 to i64
  store i64 %conv.i21, ptr %v.i18, align 8, !noalias !438
  %45 = load i64, ptr %bits.addr.i14, align 8, !noalias !438
  %46 = load ptr, ptr %pos.addr.i15, align 8, !noalias !438
  %47 = load i64, ptr %46, align 8
  %and.i22 = and i64 %47, 7
  %shl.i23 = shl i64 %45, %and.i22
  %48 = load i64, ptr %v.i18, align 8, !noalias !438
  %or.i24 = or i64 %48, %shl.i23
  store i64 %or.i24, ptr %v.i18, align 8, !noalias !438
  %49 = load ptr, ptr %p.i17, align 8, !noalias !438
  %50 = load i64, ptr %v.i18, align 8, !noalias !438
  store ptr %49, ptr %p.addr.i, align 8
  store i64 %50, ptr %v.addr.i, align 8
  %51 = load ptr, ptr %p.addr.i, align 8
  call void @llvm.memcpy.p0.p0.i64(ptr align 1 %51, ptr align 8 %v.addr.i, i64 8, i1 false)
  %52 = load i64, ptr %n_bits.addr.i13, align 8, !noalias !438
  %53 = load ptr, ptr %pos.addr.i15, align 8, !noalias !438
  %54 = load i64, ptr %53, align 8
  %add.i25 = add i64 %54, %52
  store i64 %add.i25, ptr %53, align 8
  %55 = load ptr, ptr %storage_ix.addr, align 8
  %56 = load ptr, ptr %storage.addr, align 8
  call void @llvm.experimental.noalias.scope.decl(metadata !439)
  call void @llvm.experimental.noalias.scope.decl(metadata !442)
  store i64 1, ptr %n_bits.addr.i, align 8, !noalias !444
  store i64 1, ptr %bits.addr.i, align 8, !noalias !444
  store ptr %55, ptr %pos.addr.i, align 8, !noalias !444
  store ptr %56, ptr %array.addr.i, align 8, !noalias !444
  %57 = load ptr, ptr %array.addr.i, align 8, !noalias !444
  %58 = load ptr, ptr %pos.addr.i, align 8, !noalias !444
  %59 = load i64, ptr %58, align 8
  %shr.i = lshr i64 %59, 3
  %arrayidx.i = getelementptr inbounds i8, ptr %57, i64 %shr.i
  store ptr %arrayidx.i, ptr %p.i, align 8, !noalias !444
  %60 = load ptr, ptr %p.i, align 8, !noalias !444
  %61 = load i8, ptr %60, align 1
  %conv.i = zext i8 %61 to i64
  store i64 %conv.i, ptr %v.i, align 8, !noalias !444
  %62 = load i64, ptr %bits.addr.i, align 8, !noalias !444
  %63 = load ptr, ptr %pos.addr.i, align 8, !noalias !444
  %64 = load i64, ptr %63, align 8
  %and.i = and i64 %64, 7
  %shl.i = shl i64 %62, %and.i
  %65 = load i64, ptr %v.i, align 8, !noalias !444
  %or.i = or i64 %65, %shl.i
  store i64 %or.i, ptr %v.i, align 8, !noalias !444
  %66 = load ptr, ptr %p.i, align 8, !noalias !444
  %67 = load i64, ptr %v.i, align 8, !noalias !444
  store ptr %66, ptr %p.addr.i30, align 8
  store i64 %67, ptr %v.addr.i31, align 8
  %68 = load ptr, ptr %p.addr.i30, align 8
  call void @llvm.memcpy.p0.p0.i64(ptr align 1 %68, ptr align 8 %v.addr.i31, i64 8, i1 false)
  %69 = load i64, ptr %n_bits.addr.i, align 8, !noalias !444
  %70 = load ptr, ptr %pos.addr.i, align 8, !noalias !444
  %71 = load i64, ptr %70, align 8
  %add.i = add i64 %71, %69
  store i64 %add.i, ptr %70, align 8
  %72 = load ptr, ptr %storage_ix.addr, align 8
  %73 = load ptr, ptr %storage.addr, align 8
  call void @JumpToByteBoundary(ptr noundef %72, ptr noundef %73)
  br label %if.end12

if.end12:                                         ; preds = %if.then11, %if.end
  ret void
}