; Function Attrs: mustprogress nofree norecurse nosync nounwind willreturn memory(argmem: readwrite) uwtable
define hidden void @BrotliStoreUncompressedMetaBlock(i32 noundef %is_final_block, ptr noalias noundef readonly captures(none) %input, i64 noundef %position, i64 noundef %mask, i64 noundef %len, ptr noalias noundef captures(none) %storage_ix, ptr noalias noundef captures(none) %storage) local_unnamed_addr #6 {
entry:
  %and = and i64 %mask, %position
  %0 = load i64, ptr %storage_ix, align 8
  %shr.i33.i = lshr i64 %0, 3
  %arrayidx.i34.i = getelementptr inbounds nuw i8, ptr %storage, i64 %shr.i33.i
  %1 = load i8, ptr %arrayidx.i34.i, align 1
  %conv.i35.i = zext i8 %1 to i64
  store i64 %conv.i35.i, ptr %arrayidx.i34.i, align 1
  %add.i39.i = add i64 %0, 1
  %cmp.i.i = icmp eq i64 %len, 1
  %2 = trunc i64 %len to i32
  %conv.i23.i = add i32 %2, -1
  %3 = tail call range(i32 0, 33) i32 @llvm.ctlz.i32(i32 %conv.i23.i, i1 true)
  %add.i24.i = sub nuw nsw i32 32, %3
  %4 = zext nneg i32 %add.i24.i to i64
  %cond.i.i = select i1 %cmp.i.i, i64 1, i64 %4
  %cmp3.i.i = icmp samesign ult i64 %cond.i.i, 16
  %add7.i.i = add nuw nsw i64 %cond.i.i, 3
  %5 = lshr i64 %add7.i.i, 2
  %div.i.i = select i1 %cmp3.i.i, i64 4, i64 %5
  %sub10.i.i = add nsw i64 %div.i.i, -4
  %mul.i.i = shl nuw nsw i64 %div.i.i, 2
  %sub11.i.i = add i64 %len, -1
  %shr.i20.i = lshr i64 %add.i39.i, 3
  %arrayidx.i21.i = getelementptr inbounds nuw i8, ptr %storage, i64 %shr.i20.i
  %6 = load i8, ptr %arrayidx.i21.i, align 1
  %conv.i22.i = zext i8 %6 to i64
  %and.i23.i = and i64 %add.i39.i, 7
  %shl.i24.i = shl nsw i64 %sub10.i.i, %and.i23.i
  %or.i25.i = or i64 %shl.i24.i, %conv.i22.i
  store i64 %or.i25.i, ptr %arrayidx.i21.i, align 1
  %add.i26.i = add i64 %0, 3
  %shr.i7.i = lshr i64 %add.i26.i, 3
  %arrayidx.i8.i = getelementptr inbounds nuw i8, ptr %storage, i64 %shr.i7.i
  %7 = load i8, ptr %arrayidx.i8.i, align 1
  %conv.i9.i = zext i8 %7 to i64
  %and.i10.i = and i64 %add.i26.i, 7
  %shl.i11.i = shl i64 %sub11.i.i, %and.i10.i
  %or.i12.i = or i64 %shl.i11.i, %conv.i9.i
  store i64 %or.i12.i, ptr %arrayidx.i8.i, align 1
  %add.i13.i = add i64 %add.i26.i, %mul.i.i
  %shr.i.i = lshr i64 %add.i13.i, 3
  %arrayidx.i.i = getelementptr inbounds nuw i8, ptr %storage, i64 %shr.i.i
  %8 = load i8, ptr %arrayidx.i.i, align 1
  %conv.i.i = zext i8 %8 to i64
  %and.i.i = and i64 %add.i13.i, 7
  %shl.i.i = shl nuw nsw i64 1, %and.i.i
  %or.i.i = or i64 %shl.i.i, %conv.i.i
  store i64 %or.i.i, ptr %arrayidx.i.i, align 1
  %add.i37 = add i64 %add.i13.i, 8
  %and.i38 = and i64 %add.i37, 4294967288
  %shr.i39 = lshr exact i64 %and.i38, 3
  %arrayidx.i40 = getelementptr inbounds nuw i8, ptr %storage, i64 %shr.i39
  store i8 0, ptr %arrayidx.i40, align 1
  %add = add i64 %and, %len
  %add1 = add i64 %mask, 1
  %cmp = icmp ugt i64 %add, %add1
  br i1 %cmp, label %if.then, label %if.end

if.then:                                          ; preds = %entry
  %sub = sub i64 %add1, %and
  %arrayidx3 = getelementptr inbounds i8, ptr %input, i64 %and
  tail call void @llvm.memcpy.p0.p0.i64(ptr nonnull align 1 %arrayidx.i40, ptr align 1 %arrayidx3, i64 %sub, i1 false)
  %shl = shl i64 %sub, 3
  %add4 = add i64 %and.i38, %shl
  %sub5 = sub i64 %len, %sub
  %.pre = lshr exact i64 %add4, 3
  br label %if.end

if.end:                                           ; preds = %if.then, %entry
  %shr6.pre-phi = phi i64 [ %.pre, %if.then ], [ %shr.i39, %entry ]
  %9 = phi i64 [ %add4, %if.then ], [ %and.i38, %entry ]
  %masked_pos.0 = phi i64 [ 0, %if.then ], [ %and, %entry ]
  %len.addr.0 = phi i64 [ %sub5, %if.then ], [ %len, %entry ]
  %arrayidx7 = getelementptr inbounds nuw i8, ptr %storage, i64 %shr6.pre-phi
  %arrayidx8 = getelementptr inbounds i8, ptr %input, i64 %masked_pos.0
  tail call void @llvm.memcpy.p0.p0.i64(ptr align 1 %arrayidx7, ptr align 1 %arrayidx8, i64 %len.addr.0, i1 false)
  %shl9 = shl i64 %len.addr.0, 3
  %add10 = add i64 %9, %shl9
  store i64 %add10, ptr %storage_ix, align 8
  %shr.i28 = lshr i64 %add10, 3
  %arrayidx.i29 = getelementptr inbounds nuw i8, ptr %storage, i64 %shr.i28
  store i8 0, ptr %arrayidx.i29, align 1
  %tobool.not = icmp eq i32 %is_final_block, 0
  br i1 %tobool.not, label %if.end12, label %if.then11

if.then11:                                        ; preds = %if.end
  %and.i22 = and i64 %9, 7
  %shl.i23 = shl nuw nsw i64 1, %and.i22
  store i64 %shl.i23, ptr %arrayidx.i29, align 1
  %add.i25 = add i64 %add10, 1
  %shr.i = lshr i64 %add.i25, 3
  %arrayidx.i = getelementptr inbounds nuw i8, ptr %storage, i64 %shr.i
  %10 = load i8, ptr %arrayidx.i, align 1
  %conv.i = zext i8 %10 to i64
  %and.i = and i64 %add.i25, 7
  %shl.i = shl nuw nsw i64 1, %and.i
  %or.i = or i64 %shl.i, %conv.i
  store i64 %or.i, ptr %arrayidx.i, align 1
  %add.i41 = add i64 %add10, 9
  %and.i42 = and i64 %add.i41, 4294967288
  store i64 %and.i42, ptr %storage_ix, align 8
  %shr.i43 = lshr exact i64 %and.i42, 3
  %arrayidx.i44 = getelementptr inbounds nuw i8, ptr %storage, i64 %shr.i43
  store i8 0, ptr %arrayidx.i44, align 1
  br label %if.end12

if.end12:                                         ; preds = %if.then11, %if.end
  ret void
}